ARM GAS  /tmp/ccHeMA0M.s 			page 1


   1              		.cpu cortex-m3
   2              		.arch armv7-m
   3              		.fpu softvfp
   4              		.eabi_attribute 20, 1
   5              		.eabi_attribute 21, 1
   6              		.eabi_attribute 23, 3
   7              		.eabi_attribute 24, 1
   8              		.eabi_attribute 25, 1
   9              		.eabi_attribute 26, 1
  10              		.eabi_attribute 30, 2
  11              		.eabi_attribute 34, 1
  12              		.eabi_attribute 18, 4
  13              		.file	"rc522.c"
  14              		.text
  15              		.section	.text.MFRC522_WriteReg,"ax",%progbits
  16              		.align	1
  17              		.p2align 2,,3
  18              		.global	MFRC522_WriteReg
  19              		.syntax unified
  20              		.thumb
  21              		.thumb_func
  23              	MFRC522_WriteReg:
  24              		@ args = 0, pretend = 0, frame = 0
  25              		@ frame_needed = 0, uses_anonymous_args = 0
  26              		@ link register save eliminated.
  27 0000 30B4     		push	{r4, r5}
  28 0002 1025     		movs	r5, #16
  29 0004 194A     		ldr	r2, .L26
  30 0006 4000     		lsls	r0, r0, #1
  31 0008 42F21073 		movw	r3, #10000
  32 000c 184C     		ldr	r4, .L26+4
  33 000e 00F07E0C 		and	ip, r0, #126
  34 0012 5561     		str	r5, [r2, #20]
  35 0014 01E0     		b	.L2
  36              	.L4:
  37 0016 013B     		subs	r3, r3, #1
  38 0018 0ED0     		beq	.L3
  39              	.L2:
  40 001a A268     		ldr	r2, [r4, #8]
  41 001c 9207     		lsls	r2, r2, #30
  42 001e FAD5     		bpl	.L4
  43 0020 42F21073 		movw	r3, #10000
  44 0024 1248     		ldr	r0, .L26+4
  45 0026 84F80CC0 		strb	ip, [r4, #12]
  46 002a 01E0     		b	.L5
  47              	.L7:
  48 002c 013B     		subs	r3, r3, #1
  49 002e 03D0     		beq	.L3
  50              	.L5:
  51 0030 8268     		ldr	r2, [r0, #8]
  52 0032 D507     		lsls	r5, r2, #31
  53 0034 FAD5     		bpl	.L7
  54 0036 C368     		ldr	r3, [r0, #12]
  55              	.L3:
  56 0038 42F21073 		movw	r3, #10000
  57 003c 0C48     		ldr	r0, .L26+4
  58 003e 01E0     		b	.L8
ARM GAS  /tmp/ccHeMA0M.s 			page 2


  59              	.L10:
  60 0040 013B     		subs	r3, r3, #1
  61 0042 0DD0     		beq	.L9
  62              	.L8:
  63 0044 8268     		ldr	r2, [r0, #8]
  64 0046 9407     		lsls	r4, r2, #30
  65 0048 FAD5     		bpl	.L10
  66 004a 42F21073 		movw	r3, #10000
  67 004e 084C     		ldr	r4, .L26+4
  68 0050 0173     		strb	r1, [r0, #12]
  69 0052 01E0     		b	.L11
  70              	.L13:
  71 0054 013B     		subs	r3, r3, #1
  72 0056 03D0     		beq	.L9
  73              	.L11:
  74 0058 A268     		ldr	r2, [r4, #8]
  75 005a D207     		lsls	r2, r2, #31
  76 005c FAD5     		bpl	.L13
  77 005e E368     		ldr	r3, [r4, #12]
  78              	.L9:
  79 0060 1022     		movs	r2, #16
  80 0062 30BC     		pop	{r4, r5}
  81 0064 014B     		ldr	r3, .L26
  82 0066 1A61     		str	r2, [r3, #16]
  83 0068 7047     		bx	lr
  84              	.L27:
  85 006a 00BF     		.align	2
  86              	.L26:
  87 006c 00080140 		.word	1073809408
  88 0070 00300140 		.word	1073819648
  90              		.section	.text.MFRC522_ReadReg,"ax",%progbits
  91              		.align	1
  92              		.p2align 2,,3
  93              		.global	MFRC522_ReadReg
  94              		.syntax unified
  95              		.thumb
  96              		.thumb_func
  98              	MFRC522_ReadReg:
  99              		@ args = 0, pretend = 0, frame = 0
 100              		@ frame_needed = 0, uses_anonymous_args = 0
 101              		@ link register save eliminated.
 102 0000 10B4     		push	{r4}
 103 0002 1024     		movs	r4, #16
 104 0004 1C4A     		ldr	r2, .L52
 105 0006 4000     		lsls	r0, r0, #1
 106 0008 00F07E00 		and	r0, r0, #126
 107 000c 42F21073 		movw	r3, #10000
 108 0010 1A49     		ldr	r1, .L52+4
 109 0012 40F0800C 		orr	ip, r0, #128
 110 0016 5461     		str	r4, [r2, #20]
 111 0018 01E0     		b	.L29
 112              	.L31:
 113 001a 013B     		subs	r3, r3, #1
 114 001c 0ED0     		beq	.L30
 115              	.L29:
 116 001e 8A68     		ldr	r2, [r1, #8]
 117 0020 9207     		lsls	r2, r2, #30
ARM GAS  /tmp/ccHeMA0M.s 			page 3


 118 0022 FAD5     		bpl	.L31
 119 0024 42F21073 		movw	r3, #10000
 120 0028 1448     		ldr	r0, .L52+4
 121 002a 81F80CC0 		strb	ip, [r1, #12]
 122 002e 01E0     		b	.L32
 123              	.L34:
 124 0030 013B     		subs	r3, r3, #1
 125 0032 03D0     		beq	.L30
 126              	.L32:
 127 0034 8268     		ldr	r2, [r0, #8]
 128 0036 D407     		lsls	r4, r2, #31
 129 0038 FAD5     		bpl	.L34
 130 003a C368     		ldr	r3, [r0, #12]
 131              	.L30:
 132 003c 42F21073 		movw	r3, #10000
 133 0040 0E49     		ldr	r1, .L52+4
 134 0042 01E0     		b	.L35
 135              	.L37:
 136 0044 013B     		subs	r3, r3, #1
 137 0046 14D0     		beq	.L39
 138              	.L35:
 139 0048 8A68     		ldr	r2, [r1, #8]
 140 004a 9007     		lsls	r0, r2, #30
 141 004c FAD5     		bpl	.L37
 142 004e 0022     		movs	r2, #0
 143 0050 42F21073 		movw	r3, #10000
 144 0054 0948     		ldr	r0, .L52+4
 145 0056 0A73     		strb	r2, [r1, #12]
 146 0058 01E0     		b	.L38
 147              	.L40:
 148 005a 013B     		subs	r3, r3, #1
 149 005c 09D0     		beq	.L39
 150              	.L38:
 151 005e 8268     		ldr	r2, [r0, #8]
 152 0060 D207     		lsls	r2, r2, #31
 153 0062 FAD5     		bpl	.L40
 154 0064 C068     		ldr	r0, [r0, #12]
 155 0066 C0B2     		uxtb	r0, r0
 156              	.L36:
 157 0068 1022     		movs	r2, #16
 158 006a 034B     		ldr	r3, .L52
 159 006c 10BC     		pop	{r4}
 160 006e 1A61     		str	r2, [r3, #16]
 161 0070 7047     		bx	lr
 162              	.L39:
 163 0072 FF20     		movs	r0, #255
 164 0074 F8E7     		b	.L36
 165              	.L53:
 166 0076 00BF     		.align	2
 167              	.L52:
 168 0078 00080140 		.word	1073809408
 169 007c 00300140 		.word	1073819648
 171              		.section	.text.MFRC522_SetRegBits,"ax",%progbits
 172              		.align	1
 173              		.p2align 2,,3
 174              		.global	MFRC522_SetRegBits
 175              		.syntax unified
ARM GAS  /tmp/ccHeMA0M.s 			page 4


 176              		.thumb
 177              		.thumb_func
 179              	MFRC522_SetRegBits:
 180              		@ args = 0, pretend = 0, frame = 0
 181              		@ frame_needed = 0, uses_anonymous_args = 0
 182              		@ link register save eliminated.
 183 0000 30B4     		push	{r4, r5}
 184 0002 1025     		movs	r5, #16
 185 0004 4000     		lsls	r0, r0, #1
 186 0006 324A     		ldr	r2, .L100
 187 0008 00F07E0C 		and	ip, r0, #126
 188 000c 42F21073 		movw	r3, #10000
 189 0010 304C     		ldr	r4, .L100+4
 190 0012 4CF08000 		orr	r0, ip, #128
 191 0016 5561     		str	r5, [r2, #20]
 192 0018 01E0     		b	.L55
 193              	.L57:
 194 001a 013B     		subs	r3, r3, #1
 195 001c 0DD0     		beq	.L56
 196              	.L55:
 197 001e A268     		ldr	r2, [r4, #8]
 198 0020 9207     		lsls	r2, r2, #30
 199 0022 FAD5     		bpl	.L57
 200 0024 2073     		strb	r0, [r4, #12]
 201 0026 42F21073 		movw	r3, #10000
 202 002a 2A48     		ldr	r0, .L100+4
 203 002c 01E0     		b	.L58
 204              	.L60:
 205 002e 013B     		subs	r3, r3, #1
 206 0030 03D0     		beq	.L56
 207              	.L58:
 208 0032 8268     		ldr	r2, [r0, #8]
 209 0034 D507     		lsls	r5, r2, #31
 210 0036 FAD5     		bpl	.L60
 211 0038 C368     		ldr	r3, [r0, #12]
 212              	.L56:
 213 003a 42F21073 		movw	r3, #10000
 214 003e 2548     		ldr	r0, .L100+4
 215 0040 01E0     		b	.L61
 216              	.L63:
 217 0042 013B     		subs	r3, r3, #1
 218 0044 42D0     		beq	.L65
 219              	.L61:
 220 0046 8268     		ldr	r2, [r0, #8]
 221 0048 9407     		lsls	r4, r2, #30
 222 004a FAD5     		bpl	.L63
 223 004c 0022     		movs	r2, #0
 224 004e 42F21073 		movw	r3, #10000
 225 0052 204C     		ldr	r4, .L100+4
 226 0054 0273     		strb	r2, [r0, #12]
 227 0056 01E0     		b	.L64
 228              	.L66:
 229 0058 013B     		subs	r3, r3, #1
 230 005a 37D0     		beq	.L65
 231              	.L64:
 232 005c A268     		ldr	r2, [r4, #8]
 233 005e D007     		lsls	r0, r2, #31
ARM GAS  /tmp/ccHeMA0M.s 			page 5


 234 0060 FAD5     		bpl	.L66
 235 0062 E368     		ldr	r3, [r4, #12]
 236 0064 1943     		orrs	r1, r1, r3
 237 0066 C9B2     		uxtb	r1, r1
 238              	.L62:
 239 0068 1024     		movs	r4, #16
 240 006a 194A     		ldr	r2, .L100
 241 006c 42F21073 		movw	r3, #10000
 242 0070 1461     		str	r4, [r2, #16]
 243 0072 1848     		ldr	r0, .L100+4
 244 0074 5461     		str	r4, [r2, #20]
 245 0076 01E0     		b	.L67
 246              	.L69:
 247 0078 013B     		subs	r3, r3, #1
 248 007a 0ED0     		beq	.L68
 249              	.L67:
 250 007c 8268     		ldr	r2, [r0, #8]
 251 007e 9207     		lsls	r2, r2, #30
 252 0080 FAD5     		bpl	.L69
 253 0082 42F21073 		movw	r3, #10000
 254 0086 134C     		ldr	r4, .L100+4
 255 0088 80F80CC0 		strb	ip, [r0, #12]
 256 008c 01E0     		b	.L70
 257              	.L72:
 258 008e 013B     		subs	r3, r3, #1
 259 0090 03D0     		beq	.L68
 260              	.L70:
 261 0092 A268     		ldr	r2, [r4, #8]
 262 0094 D507     		lsls	r5, r2, #31
 263 0096 FAD5     		bpl	.L72
 264 0098 E368     		ldr	r3, [r4, #12]
 265              	.L68:
 266 009a 42F21073 		movw	r3, #10000
 267 009e 0D48     		ldr	r0, .L100+4
 268 00a0 01E0     		b	.L73
 269              	.L75:
 270 00a2 013B     		subs	r3, r3, #1
 271 00a4 0DD0     		beq	.L74
 272              	.L73:
 273 00a6 8268     		ldr	r2, [r0, #8]
 274 00a8 9407     		lsls	r4, r2, #30
 275 00aa FAD5     		bpl	.L75
 276 00ac 42F21073 		movw	r3, #10000
 277 00b0 084C     		ldr	r4, .L100+4
 278 00b2 0173     		strb	r1, [r0, #12]
 279 00b4 01E0     		b	.L76
 280              	.L78:
 281 00b6 013B     		subs	r3, r3, #1
 282 00b8 03D0     		beq	.L74
 283              	.L76:
 284 00ba A268     		ldr	r2, [r4, #8]
 285 00bc D207     		lsls	r2, r2, #31
 286 00be FAD5     		bpl	.L78
 287 00c0 E368     		ldr	r3, [r4, #12]
 288              	.L74:
 289 00c2 1022     		movs	r2, #16
 290 00c4 30BC     		pop	{r4, r5}
ARM GAS  /tmp/ccHeMA0M.s 			page 6


 291 00c6 024B     		ldr	r3, .L100
 292 00c8 1A61     		str	r2, [r3, #16]
 293 00ca 7047     		bx	lr
 294              	.L65:
 295 00cc FF21     		movs	r1, #255
 296 00ce CBE7     		b	.L62
 297              	.L101:
 298              		.align	2
 299              	.L100:
 300 00d0 00080140 		.word	1073809408
 301 00d4 00300140 		.word	1073819648
 303              		.section	.text.MFRC522_ToCard.constprop.0,"ax",%progbits
 304              		.align	1
 305              		.p2align 2,,3
 306              		.syntax unified
 307              		.thumb
 308              		.thumb_func
 310              	MFRC522_ToCard.constprop.0:
 311              		@ args = 0, pretend = 0, frame = 0
 312              		@ frame_needed = 0, uses_anonymous_args = 0
 313 0000 2DE9F843 		push	{r3, r4, r5, r6, r7, r8, r9, lr}
 314 0004 8146     		mov	r9, r0
 315 0006 0E46     		mov	r6, r1
 316 0008 0220     		movs	r0, #2
 317 000a F721     		movs	r1, #247
 318 000c 1446     		mov	r4, r2
 319 000e 1D46     		mov	r5, r3
 320 0010 FFF7FEFF 		bl	MFRC522_WriteReg
 321 0014 0420     		movs	r0, #4
 322 0016 FFF7FEFF 		bl	MFRC522_ReadReg
 323 001a 0146     		mov	r1, r0
 324 001c 0420     		movs	r0, #4
 325 001e 01F07F01 		and	r1, r1, #127
 326 0022 FFF7FEFF 		bl	MFRC522_WriteReg
 327 0026 0A20     		movs	r0, #10
 328 0028 FFF7FEFF 		bl	MFRC522_ReadReg
 329 002c 0146     		mov	r1, r0
 330 002e 61F07F01 		orn	r1, r1, #127
 331 0032 0A20     		movs	r0, #10
 332 0034 C9B2     		uxtb	r1, r1
 333 0036 FFF7FEFF 		bl	MFRC522_WriteReg
 334 003a 0120     		movs	r0, #1
 335 003c 0021     		movs	r1, #0
 336 003e FFF7FEFF 		bl	MFRC522_WriteReg
 337 0042 4FF01208 		mov	r8, #18
 338 0046 1020     		movs	r0, #16
 339 0048 721E     		subs	r2, r6, #1
 340 004a 92B2     		uxth	r2, r2
 341 004c 664F     		ldr	r7, .L170
 342 004e 674B     		ldr	r3, .L170+4
 343 0050 09F1FF36 		add	r6, r9, #-1
 344 0054 09EB020E 		add	lr, r9, r2
 345              	.L115:
 346 0058 16F801CF 		ldrb	ip, [r6, #1]!	@ zero_extendqisi2
 347 005c 42F21072 		movw	r2, #10000
 348 0060 7861     		str	r0, [r7, #20]
 349 0062 01E0     		b	.L103
ARM GAS  /tmp/ccHeMA0M.s 			page 7


 350              	.L105:
 351 0064 013A     		subs	r2, r2, #1
 352 0066 0DD0     		beq	.L104
 353              	.L103:
 354 0068 9968     		ldr	r1, [r3, #8]
 355 006a 8907     		lsls	r1, r1, #30
 356 006c FAD5     		bpl	.L105
 357 006e 42F21072 		movw	r2, #10000
 358 0072 83F80C80 		strb	r8, [r3, #12]
 359 0076 01E0     		b	.L106
 360              	.L108:
 361 0078 013A     		subs	r2, r2, #1
 362 007a 03D0     		beq	.L104
 363              	.L106:
 364 007c 9968     		ldr	r1, [r3, #8]
 365 007e C907     		lsls	r1, r1, #31
 366 0080 FAD5     		bpl	.L108
 367 0082 DA68     		ldr	r2, [r3, #12]
 368              	.L104:
 369 0084 42F21072 		movw	r2, #10000
 370 0088 01E0     		b	.L109
 371              	.L111:
 372 008a 013A     		subs	r2, r2, #1
 373 008c 0DD0     		beq	.L110
 374              	.L109:
 375 008e 9968     		ldr	r1, [r3, #8]
 376 0090 8907     		lsls	r1, r1, #30
 377 0092 FAD5     		bpl	.L111
 378 0094 42F21072 		movw	r2, #10000
 379 0098 83F80CC0 		strb	ip, [r3, #12]
 380 009c 01E0     		b	.L112
 381              	.L114:
 382 009e 013A     		subs	r2, r2, #1
 383 00a0 03D0     		beq	.L110
 384              	.L112:
 385 00a2 9968     		ldr	r1, [r3, #8]
 386 00a4 C907     		lsls	r1, r1, #31
 387 00a6 FAD5     		bpl	.L114
 388 00a8 DA68     		ldr	r2, [r3, #12]
 389              	.L110:
 390 00aa B645     		cmp	lr, r6
 391 00ac 3861     		str	r0, [r7, #16]
 392 00ae D3D1     		bne	.L115
 393 00b0 0C21     		movs	r1, #12
 394 00b2 0120     		movs	r0, #1
 395 00b4 FFF7FEFF 		bl	MFRC522_WriteReg
 396 00b8 8021     		movs	r1, #128
 397 00ba 0D20     		movs	r0, #13
 398 00bc FFF7FEFF 		bl	MFRC522_SetRegBits
 399 00c0 1026     		movs	r6, #16
 400 00c2 4FF4FA62 		mov	r2, #2000
 401 00c6 8827     		movs	r7, #136
 402 00c8 4FF0000E 		mov	lr, #0
 403 00cc DFF818C1 		ldr	ip, .L170
 404 00d0 4649     		ldr	r1, .L170+4
 405              	.L130:
 406 00d2 42F21070 		movw	r0, #10000
ARM GAS  /tmp/ccHeMA0M.s 			page 8


 407 00d6 CCF81460 		str	r6, [ip, #20]
 408 00da 01E0     		b	.L116
 409              	.L118:
 410 00dc 0138     		subs	r0, r0, #1
 411 00de 0CD0     		beq	.L117
 412              	.L116:
 413 00e0 8B68     		ldr	r3, [r1, #8]
 414 00e2 9B07     		lsls	r3, r3, #30
 415 00e4 FAD5     		bpl	.L118
 416 00e6 42F21070 		movw	r0, #10000
 417 00ea 0F73     		strb	r7, [r1, #12]
 418 00ec 01E0     		b	.L119
 419              	.L121:
 420 00ee 0138     		subs	r0, r0, #1
 421 00f0 03D0     		beq	.L117
 422              	.L119:
 423 00f2 8B68     		ldr	r3, [r1, #8]
 424 00f4 DB07     		lsls	r3, r3, #31
 425 00f6 FAD5     		bpl	.L121
 426 00f8 CB68     		ldr	r3, [r1, #12]
 427              	.L117:
 428 00fa 42F21070 		movw	r0, #10000
 429 00fe 01E0     		b	.L122
 430              	.L125:
 431 0100 0138     		subs	r0, r0, #1
 432 0102 52D0     		beq	.L127
 433              	.L122:
 434 0104 8B68     		ldr	r3, [r1, #8]
 435 0106 9B07     		lsls	r3, r3, #30
 436 0108 FAD5     		bpl	.L125
 437 010a 42F21070 		movw	r0, #10000
 438 010e 81F80CE0 		strb	lr, [r1, #12]
 439 0112 01E0     		b	.L126
 440              	.L128:
 441 0114 0138     		subs	r0, r0, #1
 442 0116 48D0     		beq	.L127
 443              	.L126:
 444 0118 8B68     		ldr	r3, [r1, #8]
 445 011a DB07     		lsls	r3, r3, #31
 446 011c FAD5     		bpl	.L128
 447 011e CB68     		ldr	r3, [r1, #12]
 448 0120 013A     		subs	r2, r2, #1
 449 0122 92B2     		uxth	r2, r2
 450 0124 5FFA83F8 		uxtb	r8, r3
 451 0128 CCF81060 		str	r6, [ip, #16]
 452 012c 002A     		cmp	r2, #0
 453 012e 44D0     		beq	.L165
 454 0130 18F0310F 		tst	r8, #49
 455 0134 CDD0     		beq	.L130
 456              	.L123:
 457 0136 0D20     		movs	r0, #13
 458 0138 FFF7FEFF 		bl	MFRC522_ReadReg
 459 013c 0146     		mov	r1, r0
 460 013e 0D20     		movs	r0, #13
 461 0140 01F07F01 		and	r1, r1, #127
 462 0144 FFF7FEFF 		bl	MFRC522_WriteReg
 463 0148 0620     		movs	r0, #6
ARM GAS  /tmp/ccHeMA0M.s 			page 9


 464 014a FFF7FEFF 		bl	MFRC522_ReadReg
 465 014e 10F01B0F 		tst	r0, #27
 466 0152 40D1     		bne	.L169
 467 0154 18F00108 		ands	r8, r8, #1
 468 0158 4FF00A00 		mov	r0, #10
 469 015c 18BF     		it	ne
 470 015e 4FF00308 		movne	r8, #3
 471 0162 FFF7FEFF 		bl	MFRC522_ReadReg
 472 0166 0646     		mov	r6, r0
 473 0168 0C20     		movs	r0, #12
 474 016a FFF7FEFF 		bl	MFRC522_ReadReg
 475 016e 10F00700 		ands	r0, r0, #7
 476 0172 35D0     		beq	.L133
 477 0174 731E     		subs	r3, r6, #1
 478 0176 00EBC300 		add	r0, r0, r3, lsl #3
 479 017a 82B2     		uxth	r2, r0
 480              	.L134:
 481 017c 102E     		cmp	r6, #16
 482 017e 3346     		mov	r3, r6
 483 0180 28BF     		it	cs
 484 0182 1023     		movcs	r3, #16
 485 0184 DBB2     		uxtb	r3, r3
 486 0186 012B     		cmp	r3, #1
 487 0188 38BF     		it	cc
 488 018a 0123     		movcc	r3, #1
 489 018c 013B     		subs	r3, r3, #1
 490 018e 9BB2     		uxth	r3, r3
 491 0190 2A80     		strh	r2, [r5]	@ movhi
 492 0192 651E     		subs	r5, r4, #1
 493 0194 1C44     		add	r4, r4, r3
 494              	.L135:
 495 0196 0920     		movs	r0, #9
 496 0198 FFF7FEFF 		bl	MFRC522_ReadReg
 497 019c 05F8010F 		strb	r0, [r5, #1]!
 498 01a0 AC42     		cmp	r4, r5
 499 01a2 F8D1     		bne	.L135
 500 01a4 4046     		mov	r0, r8
 501 01a6 BDE8F883 		pop	{r3, r4, r5, r6, r7, r8, r9, pc}
 502              	.L127:
 503 01aa 1021     		movs	r1, #16
 504 01ac 0E4B     		ldr	r3, .L170
 505 01ae 012A     		cmp	r2, #1
 506 01b0 18BF     		it	ne
 507 01b2 4FF0FF08 		movne	r8, #255
 508 01b6 1961     		str	r1, [r3, #16]
 509 01b8 BDD1     		bne	.L123
 510              	.L165:
 511 01ba 0D20     		movs	r0, #13
 512 01bc FFF7FEFF 		bl	MFRC522_ReadReg
 513 01c0 0146     		mov	r1, r0
 514 01c2 4FF00208 		mov	r8, #2
 515 01c6 0D20     		movs	r0, #13
 516 01c8 01F07F01 		and	r1, r1, #127
 517 01cc FFF7FEFF 		bl	MFRC522_WriteReg
 518 01d0 4046     		mov	r0, r8
 519 01d2 BDE8F883 		pop	{r3, r4, r5, r6, r7, r8, r9, pc}
 520              	.L169:
ARM GAS  /tmp/ccHeMA0M.s 			page 10


 521 01d6 4FF00108 		mov	r8, #1
 522 01da 4046     		mov	r0, r8
 523 01dc BDE8F883 		pop	{r3, r4, r5, r6, r7, r8, r9, pc}
 524              	.L133:
 525 01e0 F200     		lsls	r2, r6, #3
 526 01e2 92B2     		uxth	r2, r2
 527 01e4 CAE7     		b	.L134
 528              	.L171:
 529 01e6 00BF     		.align	2
 530              	.L170:
 531 01e8 00080140 		.word	1073809408
 532 01ec 00300140 		.word	1073819648
 534              		.section	.text.MFRC522_ClearRegBits,"ax",%progbits
 535              		.align	1
 536              		.p2align 2,,3
 537              		.global	MFRC522_ClearRegBits
 538              		.syntax unified
 539              		.thumb
 540              		.thumb_func
 542              	MFRC522_ClearRegBits:
 543              		@ args = 0, pretend = 0, frame = 0
 544              		@ frame_needed = 0, uses_anonymous_args = 0
 545              		@ link register save eliminated.
 546 0000 30B4     		push	{r4, r5}
 547 0002 1025     		movs	r5, #16
 548 0004 4000     		lsls	r0, r0, #1
 549 0006 334A     		ldr	r2, .L218
 550 0008 00F07E0C 		and	ip, r0, #126
 551 000c 42F21073 		movw	r3, #10000
 552 0010 314C     		ldr	r4, .L218+4
 553 0012 4CF08000 		orr	r0, ip, #128
 554 0016 5561     		str	r5, [r2, #20]
 555 0018 01E0     		b	.L173
 556              	.L175:
 557 001a 013B     		subs	r3, r3, #1
 558 001c 0DD0     		beq	.L174
 559              	.L173:
 560 001e A268     		ldr	r2, [r4, #8]
 561 0020 9207     		lsls	r2, r2, #30
 562 0022 FAD5     		bpl	.L175
 563 0024 2073     		strb	r0, [r4, #12]
 564 0026 42F21073 		movw	r3, #10000
 565 002a 2B48     		ldr	r0, .L218+4
 566 002c 01E0     		b	.L176
 567              	.L178:
 568 002e 013B     		subs	r3, r3, #1
 569 0030 03D0     		beq	.L174
 570              	.L176:
 571 0032 8268     		ldr	r2, [r0, #8]
 572 0034 D507     		lsls	r5, r2, #31
 573 0036 FAD5     		bpl	.L178
 574 0038 C368     		ldr	r3, [r0, #12]
 575              	.L174:
 576 003a 42F21073 		movw	r3, #10000
 577 003e 2648     		ldr	r0, .L218+4
 578 0040 01E0     		b	.L179
 579              	.L181:
ARM GAS  /tmp/ccHeMA0M.s 			page 11


 580 0042 013B     		subs	r3, r3, #1
 581 0044 43D0     		beq	.L183
 582              	.L179:
 583 0046 8268     		ldr	r2, [r0, #8]
 584 0048 9407     		lsls	r4, r2, #30
 585 004a FAD5     		bpl	.L181
 586 004c 0022     		movs	r2, #0
 587 004e 42F21073 		movw	r3, #10000
 588 0052 214C     		ldr	r4, .L218+4
 589 0054 0273     		strb	r2, [r0, #12]
 590 0056 01E0     		b	.L182
 591              	.L184:
 592 0058 013B     		subs	r3, r3, #1
 593 005a 38D0     		beq	.L183
 594              	.L182:
 595 005c A268     		ldr	r2, [r4, #8]
 596 005e D007     		lsls	r0, r2, #31
 597 0060 FAD5     		bpl	.L184
 598 0062 E368     		ldr	r3, [r4, #12]
 599 0064 DBB2     		uxtb	r3, r3
 600              	.L180:
 601 0066 1024     		movs	r4, #16
 602 0068 1A4A     		ldr	r2, .L218
 603 006a 23EA0101 		bic	r1, r3, r1
 604 006e 1461     		str	r4, [r2, #16]
 605 0070 42F21073 		movw	r3, #10000
 606 0074 1848     		ldr	r0, .L218+4
 607 0076 5461     		str	r4, [r2, #20]
 608 0078 01E0     		b	.L185
 609              	.L187:
 610 007a 013B     		subs	r3, r3, #1
 611 007c 0ED0     		beq	.L186
 612              	.L185:
 613 007e 8268     		ldr	r2, [r0, #8]
 614 0080 9207     		lsls	r2, r2, #30
 615 0082 FAD5     		bpl	.L187
 616 0084 42F21073 		movw	r3, #10000
 617 0088 134C     		ldr	r4, .L218+4
 618 008a 80F80CC0 		strb	ip, [r0, #12]
 619 008e 01E0     		b	.L188
 620              	.L190:
 621 0090 013B     		subs	r3, r3, #1
 622 0092 03D0     		beq	.L186
 623              	.L188:
 624 0094 A268     		ldr	r2, [r4, #8]
 625 0096 D507     		lsls	r5, r2, #31
 626 0098 FAD5     		bpl	.L190
 627 009a E368     		ldr	r3, [r4, #12]
 628              	.L186:
 629 009c 42F21073 		movw	r3, #10000
 630 00a0 0D48     		ldr	r0, .L218+4
 631 00a2 01E0     		b	.L191
 632              	.L193:
 633 00a4 013B     		subs	r3, r3, #1
 634 00a6 0DD0     		beq	.L192
 635              	.L191:
 636 00a8 8268     		ldr	r2, [r0, #8]
ARM GAS  /tmp/ccHeMA0M.s 			page 12


 637 00aa 9407     		lsls	r4, r2, #30
 638 00ac FAD5     		bpl	.L193
 639 00ae 42F21073 		movw	r3, #10000
 640 00b2 094C     		ldr	r4, .L218+4
 641 00b4 0173     		strb	r1, [r0, #12]
 642 00b6 01E0     		b	.L194
 643              	.L196:
 644 00b8 013B     		subs	r3, r3, #1
 645 00ba 03D0     		beq	.L192
 646              	.L194:
 647 00bc A268     		ldr	r2, [r4, #8]
 648 00be D207     		lsls	r2, r2, #31
 649 00c0 FAD5     		bpl	.L196
 650 00c2 E368     		ldr	r3, [r4, #12]
 651              	.L192:
 652 00c4 1022     		movs	r2, #16
 653 00c6 30BC     		pop	{r4, r5}
 654 00c8 024B     		ldr	r3, .L218
 655 00ca 1A61     		str	r2, [r3, #16]
 656 00cc 7047     		bx	lr
 657              	.L183:
 658 00ce FF23     		movs	r3, #255
 659 00d0 C9E7     		b	.L180
 660              	.L219:
 661 00d2 00BF     		.align	2
 662              	.L218:
 663 00d4 00080140 		.word	1073809408
 664 00d8 00300140 		.word	1073819648
 666              		.section	.text.MFRC522_Init,"ax",%progbits
 667              		.align	1
 668              		.p2align 2,,3
 669              		.global	MFRC522_Init
 670              		.syntax unified
 671              		.thumb
 672              		.thumb_func
 674              	MFRC522_Init:
 675              		@ args = 0, pretend = 0, frame = 0
 676              		@ frame_needed = 0, uses_anonymous_args = 0
 677 0000 1021     		movs	r1, #16
 678 0002 70B5     		push	{r4, r5, r6, lr}
 679 0004 4FF44570 		mov	r0, #788
 680 0008 0025     		movs	r5, #0
 681 000a 0126     		movs	r6, #1
 682 000c 2B4B     		ldr	r3, .L222
 683 000e 2C4C     		ldr	r4, .L222+4
 684 0010 1A68     		ldr	r2, [r3]
 685 0012 92B2     		uxth	r2, r2
 686 0014 1A60     		str	r2, [r3]
 687 0016 1A68     		ldr	r2, [r3]
 688 0018 42F03442 		orr	r2, r2, #-1275068416
 689 001c 42F43202 		orr	r2, r2, #11665408
 690 0020 1A60     		str	r2, [r3]
 691 0022 1961     		str	r1, [r3, #16]
 692 0024 2368     		ldr	r3, [r4]
 693 0026 274A     		ldr	r2, .L222+8
 694 0028 23F00F03 		bic	r3, r3, #15
 695 002c 2360     		str	r3, [r4]
ARM GAS  /tmp/ccHeMA0M.s 			page 13


 696 002e 2368     		ldr	r3, [r4]
 697 0030 43F00203 		orr	r3, r3, #2
 698 0034 2360     		str	r3, [r4]
 699 0036 D168     		ldr	r1, [r2, #12]
 700 0038 234B     		ldr	r3, .L222+12
 701 003a 41F48051 		orr	r1, r1, #4096
 702 003e D160     		str	r1, [r2, #12]
 703 0040 D168     		ldr	r1, [r2, #12]
 704 0042 21F48051 		bic	r1, r1, #4096
 705 0046 D160     		str	r1, [r2, #12]
 706 0048 1D60     		str	r5, [r3]
 707 004a 1860     		str	r0, [r3]
 708 004c 5D60     		str	r5, [r3, #4]
 709 004e 1A68     		ldr	r2, [r3]
 710 0050 0A20     		movs	r0, #10
 711 0052 42F04002 		orr	r2, r2, #64
 712 0056 1A60     		str	r2, [r3]
 713 0058 6661     		str	r6, [r4, #20]
 714 005a FFF7FEFF 		bl	delay_ms
 715 005e 3220     		movs	r0, #50
 716 0060 2661     		str	r6, [r4, #16]
 717 0062 FFF7FEFF 		bl	delay_ms
 718 0066 0F21     		movs	r1, #15
 719 0068 3046     		mov	r0, r6
 720 006a FFF7FEFF 		bl	MFRC522_WriteReg
 721 006e 3220     		movs	r0, #50
 722 0070 FFF7FEFF 		bl	delay_ms
 723 0074 8D21     		movs	r1, #141
 724 0076 2A20     		movs	r0, #42
 725 0078 FFF7FEFF 		bl	MFRC522_WriteReg
 726 007c 3E21     		movs	r1, #62
 727 007e 2B20     		movs	r0, #43
 728 0080 FFF7FEFF 		bl	MFRC522_WriteReg
 729 0084 2946     		mov	r1, r5
 730 0086 2C20     		movs	r0, #44
 731 0088 FFF7FEFF 		bl	MFRC522_WriteReg
 732 008c 1E21     		movs	r1, #30
 733 008e 2D20     		movs	r0, #45
 734 0090 FFF7FEFF 		bl	MFRC522_WriteReg
 735 0094 4021     		movs	r1, #64
 736 0096 1520     		movs	r0, #21
 737 0098 FFF7FEFF 		bl	MFRC522_WriteReg
 738 009c 3D21     		movs	r1, #61
 739 009e 1120     		movs	r0, #17
 740 00a0 FFF7FEFF 		bl	MFRC522_WriteReg
 741 00a4 1420     		movs	r0, #20
 742 00a6 FFF7FEFF 		bl	MFRC522_ReadReg
 743 00aa BDE87040 		pop	{r4, r5, r6, lr}
 744 00ae 0146     		mov	r1, r0
 745 00b0 41F00301 		orr	r1, r1, #3
 746 00b4 1420     		movs	r0, #20
 747 00b6 C9B2     		uxtb	r1, r1
 748 00b8 FFF7FEBF 		b	MFRC522_WriteReg
 749              	.L223:
 750              		.align	2
 751              	.L222:
 752 00bc 00080140 		.word	1073809408
ARM GAS  /tmp/ccHeMA0M.s 			page 14


 753 00c0 000C0140 		.word	1073810432
 754 00c4 00100240 		.word	1073876992
 755 00c8 00300140 		.word	1073819648
 757              		.section	.text.MFRC522_Request,"ax",%progbits
 758              		.align	1
 759              		.p2align 2,,3
 760              		.global	MFRC522_Request
 761              		.syntax unified
 762              		.thumb
 763              		.thumb_func
 765              	MFRC522_Request:
 766              		@ args = 0, pretend = 0, frame = 8
 767              		@ frame_needed = 0, uses_anonymous_args = 0
 768 0000 70B5     		push	{r4, r5, r6, lr}
 769 0002 1026     		movs	r6, #16
 770 0004 224C     		ldr	r4, .L250
 771 0006 42F21073 		movw	r3, #10000
 772 000a 8446     		mov	ip, r0
 773 000c 0A46     		mov	r2, r1
 774 000e 214D     		ldr	r5, .L250+4
 775 0010 82B0     		sub	sp, sp, #8
 776 0012 6661     		str	r6, [r4, #20]
 777 0014 01E0     		b	.L225
 778              	.L227:
 779 0016 013B     		subs	r3, r3, #1
 780 0018 0ED0     		beq	.L226
 781              	.L225:
 782 001a AC68     		ldr	r4, [r5, #8]
 783 001c A607     		lsls	r6, r4, #30
 784 001e FAD5     		bpl	.L227
 785 0020 1A20     		movs	r0, #26
 786 0022 42F21073 		movw	r3, #10000
 787 0026 1B49     		ldr	r1, .L250+4
 788 0028 2873     		strb	r0, [r5, #12]
 789 002a 01E0     		b	.L228
 790              	.L230:
 791 002c 013B     		subs	r3, r3, #1
 792 002e 03D0     		beq	.L226
 793              	.L228:
 794 0030 8C68     		ldr	r4, [r1, #8]
 795 0032 E507     		lsls	r5, r4, #31
 796 0034 FAD5     		bpl	.L230
 797 0036 CB68     		ldr	r3, [r1, #12]
 798              	.L226:
 799 0038 42F21073 		movw	r3, #10000
 800 003c 154D     		ldr	r5, .L250+4
 801 003e 01E0     		b	.L231
 802              	.L233:
 803 0040 013B     		subs	r3, r3, #1
 804 0042 0ED0     		beq	.L232
 805              	.L231:
 806 0044 AC68     		ldr	r4, [r5, #8]
 807 0046 A407     		lsls	r4, r4, #30
 808 0048 FAD5     		bpl	.L233
 809 004a 0720     		movs	r0, #7
 810 004c 42F21073 		movw	r3, #10000
 811 0050 1049     		ldr	r1, .L250+4
ARM GAS  /tmp/ccHeMA0M.s 			page 15


 812 0052 2873     		strb	r0, [r5, #12]
 813 0054 01E0     		b	.L234
 814              	.L236:
 815 0056 013B     		subs	r3, r3, #1
 816 0058 03D0     		beq	.L232
 817              	.L234:
 818 005a 8C68     		ldr	r4, [r1, #8]
 819 005c E007     		lsls	r0, r4, #31
 820 005e FAD5     		bpl	.L236
 821 0060 CB68     		ldr	r3, [r1, #12]
 822              	.L232:
 823 0062 1025     		movs	r5, #16
 824 0064 0A4C     		ldr	r4, .L250
 825 0066 0121     		movs	r1, #1
 826 0068 2561     		str	r5, [r4, #16]
 827 006a 1046     		mov	r0, r2
 828 006c 0DF10603 		add	r3, sp, #6
 829 0070 82F800C0 		strb	ip, [r2]
 830 0074 FFF7FEFF 		bl	MFRC522_ToCard.constprop.0
 831 0078 30B9     		cbnz	r0, .L238
 832 007a BDF80600 		ldrh	r0, [sp, #6]
 833 007e 401B     		subs	r0, r0, r5
 834 0080 18BF     		it	ne
 835 0082 0120     		movne	r0, #1
 836 0084 02B0     		add	sp, sp, #8
 837              		@ sp needed
 838 0086 70BD     		pop	{r4, r5, r6, pc}
 839              	.L238:
 840 0088 0120     		movs	r0, #1
 841 008a 02B0     		add	sp, sp, #8
 842              		@ sp needed
 843 008c 70BD     		pop	{r4, r5, r6, pc}
 844              	.L251:
 845 008e 00BF     		.align	2
 846              	.L250:
 847 0090 00080140 		.word	1073809408
 848 0094 00300140 		.word	1073819648
 850              		.section	.text.MFRC522_Anticoll,"ax",%progbits
 851              		.align	1
 852              		.p2align 2,,3
 853              		.global	MFRC522_Anticoll
 854              		.syntax unified
 855              		.thumb
 856              		.thumb_func
 858              	MFRC522_Anticoll:
 859              		@ args = 0, pretend = 0, frame = 8
 860              		@ frame_needed = 0, uses_anonymous_args = 0
 861 0000 70B5     		push	{r4, r5, r6, lr}
 862 0002 1025     		movs	r5, #16
 863 0004 2549     		ldr	r1, .L279
 864 0006 42F21073 		movw	r3, #10000
 865 000a 0446     		mov	r4, r0
 866 000c 244A     		ldr	r2, .L279+4
 867 000e 82B0     		sub	sp, sp, #8
 868 0010 4D61     		str	r5, [r1, #20]
 869 0012 01E0     		b	.L253
 870              	.L255:
ARM GAS  /tmp/ccHeMA0M.s 			page 16


 871 0014 013B     		subs	r3, r3, #1
 872 0016 0ED0     		beq	.L254
 873              	.L253:
 874 0018 9168     		ldr	r1, [r2, #8]
 875 001a 8E07     		lsls	r6, r1, #30
 876 001c FAD5     		bpl	.L255
 877 001e 1A21     		movs	r1, #26
 878 0020 42F21073 		movw	r3, #10000
 879 0024 1E48     		ldr	r0, .L279+4
 880 0026 1173     		strb	r1, [r2, #12]
 881 0028 01E0     		b	.L256
 882              	.L258:
 883 002a 013B     		subs	r3, r3, #1
 884 002c 03D0     		beq	.L254
 885              	.L256:
 886 002e 8168     		ldr	r1, [r0, #8]
 887 0030 CD07     		lsls	r5, r1, #31
 888 0032 FAD5     		bpl	.L258
 889 0034 C368     		ldr	r3, [r0, #12]
 890              	.L254:
 891 0036 42F21073 		movw	r3, #10000
 892 003a 194A     		ldr	r2, .L279+4
 893 003c 01E0     		b	.L259
 894              	.L261:
 895 003e 013B     		subs	r3, r3, #1
 896 0040 0ED0     		beq	.L260
 897              	.L259:
 898 0042 9168     		ldr	r1, [r2, #8]
 899 0044 8907     		lsls	r1, r1, #30
 900 0046 FAD5     		bpl	.L261
 901 0048 0021     		movs	r1, #0
 902 004a 42F21073 		movw	r3, #10000
 903 004e 1448     		ldr	r0, .L279+4
 904 0050 1173     		strb	r1, [r2, #12]
 905 0052 01E0     		b	.L262
 906              	.L264:
 907 0054 013B     		subs	r3, r3, #1
 908 0056 03D0     		beq	.L260
 909              	.L262:
 910 0058 8168     		ldr	r1, [r0, #8]
 911 005a CA07     		lsls	r2, r1, #31
 912 005c FAD5     		bpl	.L264
 913 005e C368     		ldr	r3, [r0, #12]
 914              	.L260:
 915 0060 1026     		movs	r6, #16
 916 0062 42F2930C 		movw	ip, #8339
 917 0066 0D4D     		ldr	r5, .L279
 918 0068 2246     		mov	r2, r4
 919 006a 2E61     		str	r6, [r5, #16]
 920 006c 0221     		movs	r1, #2
 921 006e 2046     		mov	r0, r4
 922 0070 0DF10603 		add	r3, sp, #6
 923 0074 A4F800C0 		strh	ip, [r4]	@ unaligned
 924 0078 FFF7FEFF 		bl	MFRC522_ToCard.constprop.0
 925 007c 58B9     		cbnz	r0, .L265
 926 007e 631E     		subs	r3, r4, #1
 927 0080 E11C     		adds	r1, r4, #3
ARM GAS  /tmp/ccHeMA0M.s 			page 17


 928              	.L266:
 929 0082 13F8012F 		ldrb	r2, [r3, #1]!	@ zero_extendqisi2
 930 0086 5040     		eors	r0, r0, r2
 931 0088 8B42     		cmp	r3, r1
 932 008a C0B2     		uxtb	r0, r0
 933 008c F9D1     		bne	.L266
 934 008e 2379     		ldrb	r3, [r4, #4]	@ zero_extendqisi2
 935 0090 181A     		subs	r0, r3, r0
 936 0092 18BF     		it	ne
 937 0094 0120     		movne	r0, #1
 938              	.L265:
 939 0096 02B0     		add	sp, sp, #8
 940              		@ sp needed
 941 0098 70BD     		pop	{r4, r5, r6, pc}
 942              	.L280:
 943 009a 00BF     		.align	2
 944              	.L279:
 945 009c 00080140 		.word	1073809408
 946 00a0 00300140 		.word	1073819648
 948              		.section	.text.MFRC522_CompareUID,"ax",%progbits
 949              		.align	1
 950              		.p2align 2,,3
 951              		.global	MFRC522_CompareUID
 952              		.syntax unified
 953              		.thumb
 954              		.thumb_func
 956              	MFRC522_CompareUID:
 957              		@ args = 0, pretend = 0, frame = 0
 958              		@ frame_needed = 0, uses_anonymous_args = 0
 959              		@ link register save eliminated.
 960 0000 431E     		subs	r3, r0, #1
 961 0002 0139     		subs	r1, r1, #1
 962 0004 0330     		adds	r0, r0, #3
 963              	.L283:
 964 0006 13F801CF 		ldrb	ip, [r3, #1]!	@ zero_extendqisi2
 965 000a 11F8012F 		ldrb	r2, [r1, #1]!	@ zero_extendqisi2
 966 000e 9445     		cmp	ip, r2
 967 0010 03D1     		bne	.L284
 968 0012 8342     		cmp	r3, r0
 969 0014 F7D1     		bne	.L283
 970 0016 0020     		movs	r0, #0
 971 0018 7047     		bx	lr
 972              	.L284:
 973 001a 0420     		movs	r0, #4
 974 001c 7047     		bx	lr
 976 001e 00BF     		.section	.text.MFRC522_Halt,"ax",%progbits
 977              		.align	1
 978              		.p2align 2,,3
 979              		.global	MFRC522_Halt
 980              		.syntax unified
 981              		.thumb
 982              		.thumb_func
 984              	MFRC522_Halt:
 985              		@ args = 0, pretend = 0, frame = 8
 986              		@ frame_needed = 0, uses_anonymous_args = 0
 987 0000 70B5     		push	{r4, r5, r6, lr}
 988 0002 5024     		movs	r4, #80
ARM GAS  /tmp/ccHeMA0M.s 			page 18


 989 0004 82B0     		sub	sp, sp, #8
 990 0006 0021     		movs	r1, #0
 991 0008 0120     		movs	r0, #1
 992 000a ADF80440 		strh	r4, [sp, #4]	@ movhi
 993 000e FFF7FEFF 		bl	MFRC522_WriteReg
 994 0012 0A20     		movs	r0, #10
 995 0014 FFF7FEFF 		bl	MFRC522_ReadReg
 996 0018 0146     		mov	r1, r0
 997 001a 61F07F01 		orn	r1, r1, #127
 998 001e 0A20     		movs	r0, #10
 999 0020 C9B2     		uxtb	r1, r1
 1000 0022 FFF7FEFF 		bl	MFRC522_WriteReg
 1001 0026 2146     		mov	r1, r4
 1002 0028 0920     		movs	r0, #9
 1003 002a FFF7FEFF 		bl	MFRC522_WriteReg
 1004 002e 0021     		movs	r1, #0
 1005 0030 0920     		movs	r0, #9
 1006 0032 FFF7FEFF 		bl	MFRC522_WriteReg
 1007 0036 0120     		movs	r0, #1
 1008 0038 0321     		movs	r1, #3
 1009 003a FFF7FEFF 		bl	MFRC522_WriteReg
 1010 003e 1024     		movs	r4, #16
 1011 0040 41F28830 		movw	r0, #5000
 1012 0044 8A25     		movs	r5, #138
 1013 0046 4FF0000E 		mov	lr, #0
 1014 004a 244E     		ldr	r6, .L320
 1015 004c 244B     		ldr	r3, .L320+4
 1016              	.L299:
 1017 004e 42F21072 		movw	r2, #10000
 1018 0052 7461     		str	r4, [r6, #20]
 1019 0054 01E0     		b	.L287
 1020              	.L289:
 1021 0056 013A     		subs	r2, r2, #1
 1022 0058 0CD0     		beq	.L288
 1023              	.L287:
 1024 005a 9968     		ldr	r1, [r3, #8]
 1025 005c 8907     		lsls	r1, r1, #30
 1026 005e FAD5     		bpl	.L289
 1027 0060 42F21072 		movw	r2, #10000
 1028 0064 1D73     		strb	r5, [r3, #12]
 1029 0066 01E0     		b	.L290
 1030              	.L292:
 1031 0068 013A     		subs	r2, r2, #1
 1032 006a 03D0     		beq	.L288
 1033              	.L290:
 1034 006c 9968     		ldr	r1, [r3, #8]
 1035 006e C907     		lsls	r1, r1, #31
 1036 0070 FAD5     		bpl	.L292
 1037 0072 DA68     		ldr	r2, [r3, #12]
 1038              	.L288:
 1039 0074 42F21072 		movw	r2, #10000
 1040 0078 01E0     		b	.L293
 1041              	.L295:
 1042 007a 013A     		subs	r2, r2, #1
 1043 007c 14D0     		beq	.L294
 1044              	.L293:
 1045 007e 9968     		ldr	r1, [r3, #8]
ARM GAS  /tmp/ccHeMA0M.s 			page 19


 1046 0080 8907     		lsls	r1, r1, #30
 1047 0082 FAD5     		bpl	.L295
 1048 0084 42F21072 		movw	r2, #10000
 1049 0088 83F80CE0 		strb	lr, [r3, #12]
 1050 008c 01E0     		b	.L296
 1051              	.L297:
 1052 008e 013A     		subs	r2, r2, #1
 1053 0090 0AD0     		beq	.L294
 1054              	.L296:
 1055 0092 9968     		ldr	r1, [r3, #8]
 1056 0094 C907     		lsls	r1, r1, #31
 1057 0096 FAD5     		bpl	.L297
 1058 0098 DA68     		ldr	r2, [r3, #12]
 1059 009a 0138     		subs	r0, r0, #1
 1060 009c 3461     		str	r4, [r6, #16]
 1061 009e D2B2     		uxtb	r2, r2
 1062 00a0 05D0     		beq	.L298
 1063 00a2 5207     		lsls	r2, r2, #29
 1064 00a4 D3D5     		bpl	.L299
 1065 00a6 02E0     		b	.L298
 1066              	.L294:
 1067 00a8 1022     		movs	r2, #16
 1068 00aa 0C4B     		ldr	r3, .L320
 1069 00ac 1A61     		str	r2, [r3, #16]
 1070              	.L298:
 1071 00ae 2220     		movs	r0, #34
 1072 00b0 FFF7FEFF 		bl	MFRC522_ReadReg
 1073 00b4 0346     		mov	r3, r0
 1074 00b6 2120     		movs	r0, #33
 1075 00b8 8DF80630 		strb	r3, [sp, #6]
 1076 00bc FFF7FEFF 		bl	MFRC522_ReadReg
 1077 00c0 0421     		movs	r1, #4
 1078 00c2 0446     		mov	r4, r0
 1079 00c4 0DEB0102 		add	r2, sp, r1
 1080 00c8 1046     		mov	r0, r2
 1081 00ca 0DF10203 		add	r3, sp, #2
 1082 00ce 8DF80740 		strb	r4, [sp, #7]
 1083 00d2 FFF7FEFF 		bl	MFRC522_ToCard.constprop.0
 1084 00d6 0020     		movs	r0, #0
 1085 00d8 02B0     		add	sp, sp, #8
 1086              		@ sp needed
 1087 00da 70BD     		pop	{r4, r5, r6, pc}
 1088              	.L321:
 1089              		.align	2
 1090              	.L320:
 1091 00dc 00080140 		.word	1073809408
 1092 00e0 00300140 		.word	1073819648
 1094              		.ident	"GCC: (15:13.2.rel1-2) 13.2.1 20231009"
ARM GAS  /tmp/ccHeMA0M.s 			page 20

