ARM GAS  /tmp/ccAtr64p.s 			page 1


   1              		.cpu cortex-m3
   2              		.arch armv7-m
   3              		.fpu softvfp
   4              		.eabi_attribute 20, 1
   5              		.eabi_attribute 21, 1
   6              		.eabi_attribute 23, 3
   7              		.eabi_attribute 24, 1
   8              		.eabi_attribute 25, 1
   9              		.eabi_attribute 26, 1
  10              		.eabi_attribute 30, 2
  11              		.eabi_attribute 34, 1
  12              		.eabi_attribute 18, 4
  13              		.file	"rgb.c"
  14              		.text
  15              		.section	.text.RGB_Init,"ax",%progbits
  16              		.align	1
  17              		.p2align 2,,3
  18              		.global	RGB_Init
  19              		.syntax unified
  20              		.thumb
  21              		.thumb_func
  23              	RGB_Init:
  24              		@ args = 0, pretend = 0, frame = 0
  25              		@ frame_needed = 0, uses_anonymous_args = 0
  26              		@ link register save eliminated.
  27 0000 0721     		movs	r1, #7
  28 0002 064B     		ldr	r3, .L3
  29 0004 1A68     		ldr	r2, [r3]
  30 0006 6FF30B02 		bfc	r2, #0, #12
  31 000a 1A60     		str	r2, [r3]
  32 000c 1A68     		ldr	r2, [r3]
  33 000e 42F40872 		orr	r2, r2, #544
  34 0012 42F00202 		orr	r2, r2, #2
  35 0016 1A60     		str	r2, [r3]
  36 0018 1961     		str	r1, [r3, #16]
  37 001a 7047     		bx	lr
  38              	.L4:
  39              		.align	2
  40              	.L3:
  41 001c 00080140 		.word	1073809408
  43              		.section	.text.RGB_SetColor,"ax",%progbits
  44              		.align	1
  45              		.p2align 2,,3
  46              		.global	RGB_SetColor
  47              		.syntax unified
  48              		.thumb
  49              		.thumb_func
  51              	RGB_SetColor:
  52              		@ args = 0, pretend = 0, frame = 0
  53              		@ frame_needed = 0, uses_anonymous_args = 0
  54              		@ link register save eliminated.
  55 0000 10B4     		push	{r4}
  56 0002 0724     		movs	r4, #7
  57 0004 074B     		ldr	r3, .L19
  58 0006 1C61     		str	r4, [r3, #16]
  59 0008 08B1     		cbz	r0, .L6
  60 000a 0120     		movs	r0, #1
ARM GAS  /tmp/ccAtr64p.s 			page 2


  61 000c 5861     		str	r0, [r3, #20]
  62              	.L6:
  63 000e 11B1     		cbz	r1, .L7
  64 0010 0221     		movs	r1, #2
  65 0012 044B     		ldr	r3, .L19
  66 0014 5961     		str	r1, [r3, #20]
  67              	.L7:
  68 0016 12B1     		cbz	r2, .L5
  69 0018 0422     		movs	r2, #4
  70 001a 024B     		ldr	r3, .L19
  71 001c 5A61     		str	r2, [r3, #20]
  72              	.L5:
  73 001e 10BC     		pop	{r4}
  74 0020 7047     		bx	lr
  75              	.L20:
  76 0022 00BF     		.align	2
  77              	.L19:
  78 0024 00080140 		.word	1073809408
  80              		.section	.text.RGB_BlinkBlue,"ax",%progbits
  81              		.align	1
  82              		.p2align 2,,3
  83              		.global	RGB_BlinkBlue
  84              		.syntax unified
  85              		.thumb
  86              		.thumb_func
  88              	RGB_BlinkBlue:
  89              		@ args = 0, pretend = 0, frame = 0
  90              		@ frame_needed = 0, uses_anonymous_args = 0
  91              		@ link register save eliminated.
  92 0000 0C4B     		ldr	r3, .L24
  93 0002 0D4A     		ldr	r2, .L24+4
  94 0004 1968     		ldr	r1, [r3]
  95 0006 1368     		ldr	r3, [r2]
  96 0008 CB1A     		subs	r3, r1, r3
  97 000a 8342     		cmp	r3, r0
  98 000c 10D3     		bcc	.L21
  99 000e 0B48     		ldr	r0, .L24+8
 100 0010 1160     		str	r1, [r2]
 101 0012 0378     		ldrb	r3, [r0]	@ zero_extendqisi2
 102 0014 83F00102 		eor	r2, r3, #1
 103 0018 012B     		cmp	r3, #1
 104 001a 0270     		strb	r2, [r0]
 105 001c 05D0     		beq	.L23
 106 001e 0721     		movs	r1, #7
 107 0020 0422     		movs	r2, #4
 108 0022 074B     		ldr	r3, .L24+12
 109 0024 1961     		str	r1, [r3, #16]
 110 0026 5A61     		str	r2, [r3, #20]
 111 0028 7047     		bx	lr
 112              	.L23:
 113 002a 0722     		movs	r2, #7
 114 002c 044B     		ldr	r3, .L24+12
 115 002e 1A61     		str	r2, [r3, #16]
 116              	.L21:
 117 0030 7047     		bx	lr
 118              	.L25:
 119 0032 00BF     		.align	2
ARM GAS  /tmp/ccAtr64p.s 			page 3


 120              	.L24:
 121 0034 00000000 		.word	SysTick_tick
 122 0038 00000000 		.word	rgb_blink_last_tick
 123 003c 00000000 		.word	rgb_blink_state
 124 0040 00080140 		.word	1073809408
 126              		.section	.bss.rgb_blink_state,"aw",%nobits
 129              	rgb_blink_state:
 130 0000 00       		.space	1
 131              		.section	.bss.rgb_blink_last_tick,"aw",%nobits
 132              		.align	2
 135              	rgb_blink_last_tick:
 136 0000 00000000 		.space	4
 137              		.ident	"GCC: (15:13.2.rel1-2) 13.2.1 20231009"
ARM GAS  /tmp/ccAtr64p.s 			page 4

